target datalayout = "e-m:e-p270:32:32-p271:32:32-p272:64:64-i64:64-i128:128-f80:128-n8:16:32:64-S128"
target triple = "x86_64-pc-linux-gnu"

@.str.42 = private unnamed_addr constant [50 x i8] c"FATAL ERROR: a memory allocation error occurred.\0A\00", align 1
@stderr = external global ptr, align 8

; Function Attrs: mustprogress uwtable
define internal void @_ZL12memory_panicv() #4 {
  %1 = load ptr, ptr @stderr, align 8
  %2 = call i32 @fputs(ptr noundef @.str.42, ptr noundef %1)
  call void @abort() #20
  unreachable
}

; Function Attrs: mustprogress uwtable
define ptr @jsonnet_realloc(ptr noundef %0, ptr noundef %1, i64 noundef %2) #4 {
  %4 = alloca ptr, align 8
  %5 = alloca ptr, align 8
  %6 = alloca ptr, align 8
  %7 = alloca i64, align 8
  %8 = alloca ptr, align 8
  %9 = alloca ptr, align 8
  store ptr %0, ptr %5, align 8
  store ptr %1, ptr %6, align 8
  store i64 %2, ptr %7, align 8
  %10 = load ptr, ptr %6, align 8
  %11 = icmp eq ptr %10, null
  br i1 %11, label %12, label %24

12:                                               ; preds = %3
  %13 = load i64, ptr %7, align 8
  %14 = icmp eq i64 %13, 0
  br i1 %14, label %15, label %16

15:                                               ; preds = %12
  store ptr null, ptr %4, align 8
  br label %38

16:                                               ; preds = %12
  %17 = load i64, ptr %7, align 8
  %18 = call noalias ptr @malloc(i64 noundef %17) #25
  store ptr %18, ptr %8, align 8
  %19 = load ptr, ptr %8, align 8
  %20 = icmp eq ptr %19, null
  br i1 %20, label %21, label %22

21:                                               ; preds = %16
  call void @_ZL12memory_panicv()
  br label %22

22:                                               ; preds = %21, %16
  %23 = load ptr, ptr %8, align 8
  store ptr %23, ptr %4, align 8
  br label %38

24:                                               ; preds = %3
  %25 = load i64, ptr %7, align 8
  %26 = icmp eq i64 %25, 0
  br i1 %26, label %27, label %29

27:                                               ; preds = %24
  %28 = load ptr, ptr %6, align 8
  call void @free(ptr noundef %28) #3
  store ptr null, ptr %4, align 8
  br label %38

29:                                               ; preds = %24
  %30 = load ptr, ptr %6, align 8
  %31 = load i64, ptr %7, align 8
  %32 = call ptr @realloc(ptr noundef %30, i64 noundef %31) #26
  store ptr %32, ptr %9, align 8
  %33 = load ptr, ptr %9, align 8
  %34 = icmp eq ptr %33, null
  br i1 %34, label %35, label %36

35:                                               ; preds = %29
  call void @_ZL12memory_panicv()
  br label %36

36:                                               ; preds = %35, %29
  %37 = load ptr, ptr %9, align 8
  store ptr %37, ptr %4, align 8
  br label %38

38:                                               ; preds = %36, %27, %22, %15
  %39 = load ptr, ptr %4, align 8
  ret ptr %39
}

; Function Attrs: mustprogress uwtable
define internal noundef ptr @_ZL18from_string_nonullP9JsonnetVmRKNSt7__cxx1112basic_stringIcSt11char_traitsIcESaIcEEEPm(ptr noundef %0, ptr noundef nonnull align 8 dereferenceable(32) %1, ptr noundef %2) #4 {
  %4 = alloca ptr, align 8
  %5 = alloca ptr, align 8
  %6 = alloca ptr, align 8
  %7 = alloca ptr, align 8
  store ptr %0, ptr %4, align 8
  store ptr %1, ptr %5, align 8
  store ptr %2, ptr %6, align 8
  %8 = load ptr, ptr %4, align 8
  %9 = load ptr, ptr %5, align 8
  %10 = call noundef i64 @_ZNKSt7__cxx1112basic_stringIcSt11char_traitsIcESaIcEE6lengthEv(ptr noundef nonnull align 8 dereferenceable(32) %9) #3
  %11 = call ptr @jsonnet_realloc(ptr noundef %8, ptr noundef null, i64 noundef %10)
  store ptr %11, ptr %7, align 8
  %12 = load ptr, ptr %7, align 8
  %13 = load ptr, ptr %5, align 8
  %14 = call noundef ptr @_ZNKSt7__cxx1112basic_stringIcSt11char_traitsIcESaIcEE4dataEv(ptr noundef nonnull align 8 dereferenceable(32) %13) #3
  %15 = load ptr, ptr %5, align 8
  %16 = call noundef i64 @_ZNKSt7__cxx1112basic_stringIcSt11char_traitsIcESaIcEE6lengthEv(ptr noundef nonnull align 8 dereferenceable(32) %15) #3
  call void @llvm.memcpy.p0.p0.i64(ptr align 1 %12, ptr align 1 %14, i64 %16, i1 false)
  %17 = load ptr, ptr %5, align 8
  %18 = call noundef i64 @_ZNKSt7__cxx1112basic_stringIcSt11char_traitsIcESaIcEE6lengthEv(ptr noundef nonnull align 8 dereferenceable(32) %17) #3
  %19 = load ptr, ptr %6, align 8
  store i64 %18, ptr %19, align 8
  %20 = load ptr, ptr %7, align 8
  ret ptr %20
}