; Function Attrs: mustprogress nounwind uwtable
define internal fastcc noalias noundef ptr @_ZL18from_string_nonullP9JsonnetVmRKNSt7__cxx1112basic_stringIcSt11char_traitsIcESaIcEEEPm(ptr noundef nonnull align 8 dereferenceable(32) %0, ptr nocapture noundef writeonly %1) unnamed_addr #3 {
  %3 = tail call noundef i64 @_ZNKSt7__cxx1112basic_stringIcSt11char_traitsIcESaIcEE6lengthEv(ptr noundef nonnull align 8 dereferenceable(32) %0) #30
  %4 = icmp eq i64 %3, 0
  br i1 %4, label %jsonnet_realloc.exit, label %5

5:                                                ; preds = %2
  %6 = tail call noalias ptr @malloc(i64 noundef %3) #36
  %7 = icmp eq ptr %6, null
  br i1 %7, label %8, label %jsonnet_realloc.exit

8:                                                ; preds = %5
  %9 = load ptr, ptr @stderr, align 8
  %10 = tail call i64 @fwrite(ptr nonnull @.str.42, i64 49, i64 1, ptr %9) #34
  tail call void @abort() #29
  unreachable

jsonnet_realloc.exit:                             ; preds = %2, %5
  %.0.i = phi ptr [ null, %2 ], [ %6, %5 ]
  %11 = tail call noundef ptr @_ZNKSt7__cxx1112basic_stringIcSt11char_traitsIcESaIcEE4dataEv(ptr noundef nonnull align 8 dereferenceable(32) %0) #30
  %12 = tail call noundef i64 @_ZNKSt7__cxx1112basic_stringIcSt11char_traitsIcESaIcEE6lengthEv(ptr noundef nonnull align 8 dereferenceable(32) %0) #30
  tail call void @llvm.memcpy.p0.p0.i64(ptr align 1 %.0.i, ptr align 1 %11, i64 %12, i1 false)
  %13 = tail call noundef i64 @_ZNKSt7__cxx1112basic_stringIcSt11char_traitsIcESaIcEE6lengthEv(ptr noundef nonnull align 8 dereferenceable(32) %0) #30
  store i64 %13, ptr %1, align 8
  ret ptr %.0.i
}